target datalayout = "e-m:e-p270:32:32-p271:32:32-p272:64:64-i64:64-i128:128-f80:128-n8:16:32:64-S128"
target triple = "x86_64-pc-linux-gnu"

%struct.DdManager = type { %struct.DdNode, ptr, ptr, ptr, ptr, ptr, ptr, ptr, i32, i32, double, double, double, i32, i32, i32, i32, i32, i32, ptr, ptr, %struct.DdSubtable, i32, i32, i32, i32, i32, i32, i32, double, i32, i32, i32, ptr, i64, double, i32, ptr, ptr, ptr, ptr, ptr, ptr, ptr, i32, ptr, ptr, ptr, ptr, ptr, ptr, i32, i32, i32, double, i32, i32, i32, i32, double, double, i32, i32, i32, i32, i32, i32, i32, i32, i32, ptr, ptr, i32, i32, i32, i32, i32, i32, ptr, ptr, ptr, ptr, ptr, ptr, ptr, ptr, i32, i64, i64, i64, i32, i64, i64, double, double, double, double, double, double, i32, ptr, ptr, i64 }
%struct.DdNode = type { i32, i32, ptr, %union.anon, i64 }
%union.anon = type { %struct.DdChildren }
%struct.DdChildren = type { ptr, ptr }
%struct.DdSubtable = type { ptr, i32, i32, i32, i32, i32, i32, i32, i32, i32, i32, i32 }

@s_SuppSize = internal global [1024 x i32] zeroinitializer, align 16
@.str.7 = private unnamed_addr constant [29 x i8] c"Single BDD size = %6d nodes\0A\00", align 1
@.str.8 = private unnamed_addr constant [29 x i8] c"MTBDD           = %6d nodes\0A\00", align 1

; Function Attrs: nounwind uwtable
define ptr @GetSingleOutputFunction(ptr noundef %0, ptr noundef %1, i32 noundef %2, ptr noundef %3, i32 noundef %4, i32 noundef %5) #0 {
  %7 = alloca ptr, align 8
  %8 = alloca ptr, align 8
  %9 = alloca i32, align 4
  %10 = alloca ptr, align 8
  %11 = alloca i32, align 4
  %12 = alloca i32, align 4
  %13 = alloca i32, align 4
  %14 = alloca ptr, align 8
  %15 = alloca ptr, align 8
  %16 = alloca ptr, align 8
  %17 = alloca ptr, align 8
  %18 = alloca ptr, align 8
  %19 = alloca [1024 x i32], align 16
  store ptr %0, ptr %7, align 8, !tbaa !8
  store ptr %1, ptr %8, align 8, !tbaa !10
  store i32 %2, ptr %9, align 4, !tbaa !12
  store ptr %3, ptr %10, align 8, !tbaa !10
  store i32 %4, ptr %11, align 4, !tbaa !12
  store i32 %5, ptr %12, align 4, !tbaa !12
  call void @llvm.lifetime.start.p0(i64 4, ptr %13) #5
  call void @llvm.lifetime.start.p0(i64 8, ptr %14) #5
  call void @llvm.lifetime.start.p0(i64 8, ptr %15) #5
  call void @llvm.lifetime.start.p0(i64 8, ptr %16) #5
  call void @llvm.lifetime.start.p0(i64 8, ptr %17) #5
  call void @llvm.lifetime.start.p0(i64 8, ptr %18) #5
  call void @llvm.lifetime.start.p0(i64 4096, ptr %19) #5
  store i32 0, ptr %13, align 4, !tbaa !12
  br label %20

20:                                               ; preds = %39, %6
  %21 = load i32, ptr %13, align 4, !tbaa !12
  %22 = load i32, ptr %9, align 4, !tbaa !12
  %23 = icmp slt i32 %21, %22
  br i1 %23, label %24, label %42

24:                                               ; preds = %20
  %25 = load ptr, ptr %7, align 8, !tbaa !8
  %26 = load ptr, ptr %8, align 8, !tbaa !10
  %27 = load i32, ptr %13, align 4, !tbaa !12
  %28 = sext i32 %27 to i64
  %29 = getelementptr inbounds ptr, ptr %26, i64 %28
  %30 = load ptr, ptr %29, align 8, !tbaa !14
  %31 = call i32 @Cudd_SupportSize(ptr noundef %25, ptr noundef %30)
  %32 = load i32, ptr %13, align 4, !tbaa !12
  %33 = sext i32 %32 to i64
  %34 = getelementptr inbounds [1024 x i32], ptr @s_SuppSize, i64 0, i64 %33
  store i32 %31, ptr %34, align 4, !tbaa !12
  %35 = load i32, ptr %13, align 4, !tbaa !12
  %36 = load i32, ptr %13, align 4, !tbaa !12
  %37 = sext i32 %36 to i64
  %38 = getelementptr inbounds [1024 x i32], ptr %19, i64 0, i64 %37
  store i32 %35, ptr %38, align 4, !tbaa !12
  br label %39

39:                                               ; preds = %24
  %40 = load i32, ptr %13, align 4, !tbaa !12
  %41 = add nsw i32 %40, 1
  store i32 %41, ptr %13, align 4, !tbaa !12
  br label %20, !llvm.loop !24

42:                                               ; preds = %20
  %43 = getelementptr inbounds [1024 x i32], ptr %19, i64 0, i64 0
  %44 = load i32, ptr %9, align 4, !tbaa !12
  %45 = sext i32 %44 to i64
  call void @qsort(ptr noundef %43, i64 noundef %45, i64 noundef 4, ptr noundef @CompareSupports)
  %46 = load ptr, ptr %7, align 8, !tbaa !8
  %47 = getelementptr inbounds nuw %struct.DdManager, ptr %46, i32 0, i32 1
  %48 = load ptr, ptr %47, align 8, !tbaa !25
  %49 = ptrtoint ptr %48 to i64
  %50 = xor i64 %49, 1
  %51 = inttoptr i64 %50 to ptr
  store ptr %51, ptr %14, align 8, !tbaa !14
  %52 = load ptr, ptr %14, align 8, !tbaa !14
  call void @Cudd_Ref(ptr noundef %52)
  store i32 0, ptr %13, align 4, !tbaa !12
  br label %53

53:                                               ; preds = %87, %42
  %54 = load i32, ptr %13, align 4, !tbaa !12
  %55 = load i32, ptr %9, align 4, !tbaa !12
  %56 = icmp slt i32 %54, %55
  br i1 %56, label %57, label %90

57:                                               ; preds = %53
  %58 = load ptr, ptr %7, align 8, !tbaa !8
  %59 = load i32, ptr %13, align 4, !tbaa !12
  %60 = load i32, ptr %11, align 4, !tbaa !12
  %61 = load ptr, ptr %10, align 8, !tbaa !10
  %62 = call ptr @Extra_bddBitsToCube(ptr noundef %58, i32 noundef %59, i32 noundef %60, ptr noundef %61, i32 noundef 1)
  store ptr %62, ptr %16, align 8, !tbaa !14
  %63 = load ptr, ptr %16, align 8, !tbaa !14
  call void @Cudd_Ref(ptr noundef %63)
  %64 = load ptr, ptr %7, align 8, !tbaa !8
  %65 = load ptr, ptr %16, align 8, !tbaa !14
  %66 = load ptr, ptr %8, align 8, !tbaa !10
  %67 = load i32, ptr %13, align 4, !tbaa !12
  %68 = sext i32 %67 to i64
  %69 = getelementptr inbounds [1024 x i32], ptr %19, i64 0, i64 %68
  %70 = load i32, ptr %69, align 4, !tbaa !12
  %71 = sext i32 %70 to i64
  %72 = getelementptr inbounds ptr, ptr %66, i64 %71
  %73 = load ptr, ptr %72, align 8, !tbaa !14
  %74 = call ptr @Cudd_bddAnd(ptr noundef %64, ptr noundef %65, ptr noundef %73)
  store ptr %74, ptr %18, align 8, !tbaa !14
  %75 = load ptr, ptr %18, align 8, !tbaa !14
  call void @Cudd_Ref(ptr noundef %75)
  %76 = load ptr, ptr %7, align 8, !tbaa !8
  %77 = load ptr, ptr %16, align 8, !tbaa !14
  call void @Cudd_RecursiveDeref(ptr noundef %76, ptr noundef %77)
  %78 = load ptr, ptr %7, align 8, !tbaa !8
  %79 = load ptr, ptr %18, align 8, !tbaa !14
  %80 = load ptr, ptr %14, align 8, !tbaa !14
  store ptr %80, ptr %17, align 8, !tbaa !14
  %81 = call ptr @Cudd_bddOr(ptr noundef %78, ptr noundef %79, ptr noundef %80)
  store ptr %81, ptr %14, align 8, !tbaa !14
  %82 = load ptr, ptr %14, align 8, !tbaa !14
  call void @Cudd_Ref(ptr noundef %82)
  %83 = load ptr, ptr %7, align 8, !tbaa !8
  %84 = load ptr, ptr %17, align 8, !tbaa !14
  call void @Cudd_RecursiveDeref(ptr noundef %83, ptr noundef %84)
  %85 = load ptr, ptr %7, align 8, !tbaa !8
  %86 = load ptr, ptr %18, align 8, !tbaa !14
  call void @Cudd_RecursiveDeref(ptr noundef %85, ptr noundef %86)
  br label %87

87:                                               ; preds = %57
  %88 = load i32, ptr %13, align 4, !tbaa !12
  %89 = add nsw i32 %88, 1
  store i32 %89, ptr %13, align 4, !tbaa !12
  br label %53, !llvm.loop !38

90:                                               ; preds = %53
  %91 = load i32, ptr %12, align 4, !tbaa !12
  %92 = icmp ne i32 %91, 0
  br i1 %92, label %93, label %97

93:                                               ; preds = %90
  %94 = load ptr, ptr %14, align 8, !tbaa !14
  %95 = call i32 @Cudd_DagSize(ptr noundef %94)
  %96 = call i32 (ptr, ...) @printf(ptr noundef @.str.7, i32 noundef %95)
  br label %97

97:                                               ; preds = %93, %90
  %98 = load ptr, ptr %7, align 8, !tbaa !8
  %99 = load ptr, ptr %14, align 8, !tbaa !14
  %100 = call ptr @Cudd_BddToAdd(ptr noundef %98, ptr noundef %99)
  store ptr %100, ptr %15, align 8, !tbaa !14
  %101 = load ptr, ptr %15, align 8, !tbaa !14
  call void @Cudd_Ref(ptr noundef %101)
  %102 = load ptr, ptr %7, align 8, !tbaa !8
  %103 = load ptr, ptr %14, align 8, !tbaa !14
  call void @Cudd_RecursiveDeref(ptr noundef %102, ptr noundef %103)
  %104 = load i32, ptr %12, align 4, !tbaa !12
  %105 = icmp ne i32 %104, 0
  br i1 %105, label %106, label %110

106:                                              ; preds = %97
  %107 = load ptr, ptr %15, align 8, !tbaa !14
  %108 = call i32 @Cudd_DagSize(ptr noundef %107)
  %109 = call i32 (ptr, ...) @printf(ptr noundef @.str.8, i32 noundef %108)
  br label %110

110:                                              ; preds = %106, %97
  %111 = load ptr, ptr %15, align 8, !tbaa !14
  call void @Cudd_Deref(ptr noundef %111)
  %112 = load ptr, ptr %15, align 8, !tbaa !14
  call void @llvm.lifetime.end.p0(i64 4096, ptr %19) #5
  call void @llvm.lifetime.end.p0(i64 8, ptr %18) #5
  call void @llvm.lifetime.end.p0(i64 8, ptr %17) #5
  call void @llvm.lifetime.end.p0(i64 8, ptr %16) #5
  call void @llvm.lifetime.end.p0(i64 8, ptr %15) #5
  call void @llvm.lifetime.end.p0(i64 8, ptr %14) #5
  call void @llvm.lifetime.end.p0(i64 4, ptr %13) #5
  ret ptr %112
}