; Function Attrs: nounwind uwtable
define noundef ptr @GetSingleOutputFunction(ptr noundef %0, ptr noundef readonly captures(none) %1, i32 noundef %2, ptr noundef %3, i32 noundef %4, i32 noundef %5) local_unnamed_addr #0 {
  %7 = alloca [1024 x i32], align 16
  call void @llvm.lifetime.start.p0(i64 4096, ptr nonnull %7) #14
  %8 = icmp sgt i32 %2, 0
  br i1 %8, label %.lr.ph.preheader, label %._crit_edge

.lr.ph.preheader:                                 ; preds = %6
  %wide.trip.count = zext nneg i32 %2 to i64
  br label %.lr.ph

.lr.ph:                                           ; preds = %.lr.ph.preheader, %.lr.ph
  %indvars.iv = phi i64 [ 0, %.lr.ph.preheader ], [ %indvars.iv.next, %.lr.ph ]
  %9 = getelementptr inbounds nuw ptr, ptr %1, i64 %indvars.iv
  %10 = load ptr, ptr %9, align 8, !tbaa !3
  %11 = tail call i32 @Cudd_SupportSize(ptr noundef %0, ptr noundef %10) #14
  %12 = getelementptr inbounds nuw [1024 x i32], ptr @s_SuppSize, i64 0, i64 %indvars.iv
  store i32 %11, ptr %12, align 4, !tbaa !19
  %13 = getelementptr inbounds nuw [1024 x i32], ptr %7, i64 0, i64 %indvars.iv
  %14 = trunc nuw nsw i64 %indvars.iv to i32
  store i32 %14, ptr %13, align 4, !tbaa !19
  %indvars.iv.next = add nuw nsw i64 %indvars.iv, 1
  %exitcond.not = icmp eq i64 %indvars.iv.next, %wide.trip.count
  br i1 %exitcond.not, label %._crit_edge, label %.lr.ph, !llvm.loop !21

._crit_edge:                                      ; preds = %.lr.ph, %6
  %15 = sext i32 %2 to i64
  call void @qsort(ptr noundef nonnull %7, i64 noundef %15, i64 noundef 4, ptr noundef nonnull @CompareSupports) #14
  %16 = getelementptr inbounds nuw i8, ptr %0, i64 40
  %17 = load ptr, ptr %16, align 8, !tbaa !22
  %18 = ptrtoint ptr %17 to i64
  %19 = xor i64 %18, 1
  %20 = inttoptr i64 %19 to ptr
  call void @Cudd_Ref(ptr noundef %20) #14
  br i1 %8, label %.lr.ph51.preheader, label %._crit_edge52

.lr.ph51.preheader:                               ; preds = %._crit_edge
  %wide.trip.count57 = zext nneg i32 %2 to i64
  br label %.lr.ph51

.lr.ph51:                                         ; preds = %.lr.ph51.preheader, %.lr.ph51
  %indvars.iv54 = phi i64 [ 0, %.lr.ph51.preheader ], [ %indvars.iv.next55, %.lr.ph51 ]
  %.04548 = phi ptr [ %20, %.lr.ph51.preheader ], [ %29, %.lr.ph51 ]
  %21 = trunc nuw nsw i64 %indvars.iv54 to i32
  %22 = call ptr @Extra_bddBitsToCube(ptr noundef %0, i32 noundef %21, i32 noundef %4, ptr noundef %3, i32 noundef 1) #14
  call void @Cudd_Ref(ptr noundef %22) #14
  %23 = getelementptr inbounds nuw [1024 x i32], ptr %7, i64 0, i64 %indvars.iv54
  %24 = load i32, ptr %23, align 4, !tbaa !19
  %25 = sext i32 %24 to i64
  %26 = getelementptr inbounds ptr, ptr %1, i64 %25
  %27 = load ptr, ptr %26, align 8, !tbaa !3
  %28 = call ptr @Cudd_bddAnd(ptr noundef %0, ptr noundef %22, ptr noundef %27) #14
  call void @Cudd_Ref(ptr noundef %28) #14
  call void @Cudd_RecursiveDeref(ptr noundef %0, ptr noundef %22) #14
  %29 = call ptr @Cudd_bddOr(ptr noundef %0, ptr noundef %28, ptr noundef %.04548) #14
  call void @Cudd_Ref(ptr noundef %29) #14
  call void @Cudd_RecursiveDeref(ptr noundef %0, ptr noundef %.04548) #14
  call void @Cudd_RecursiveDeref(ptr noundef %0, ptr noundef %28) #14
  %indvars.iv.next55 = add nuw nsw i64 %indvars.iv54, 1
  %exitcond58.not = icmp eq i64 %indvars.iv.next55, %wide.trip.count57
  br i1 %exitcond58.not, label %._crit_edge52, label %.lr.ph51, !llvm.loop !36

._crit_edge52:                                    ; preds = %.lr.ph51, %._crit_edge
  %.045.lcssa = phi ptr [ %20, %._crit_edge ], [ %29, %.lr.ph51 ]
  %.not = icmp eq i32 %5, 0
  br i1 %.not, label %33, label %30

30:                                               ; preds = %._crit_edge52
  %31 = call i32 @Cudd_DagSize(ptr noundef %.045.lcssa) #14
  %32 = call i32 (ptr, ...) @printf(ptr noundef nonnull dereferenceable(1) @.str.7, i32 noundef %31)
  br label %33

33:                                               ; preds = %30, %._crit_edge52
  %34 = call ptr @Cudd_BddToAdd(ptr noundef %0, ptr noundef %.045.lcssa) #14
  call void @Cudd_Ref(ptr noundef %34) #14
  call void @Cudd_RecursiveDeref(ptr noundef %0, ptr noundef %.045.lcssa) #14
  br i1 %.not, label %38, label %35

35:                                               ; preds = %33
  %36 = call i32 @Cudd_DagSize(ptr noundef %34) #14
  %37 = call i32 (ptr, ...) @printf(ptr noundef nonnull dereferenceable(1) @.str.8, i32 noundef %36)
  br label %38

38:                                               ; preds = %35, %33
  call void @Cudd_Deref(ptr noundef %34) #14
  call void @llvm.lifetime.end.p0(i64 4096, ptr nonnull %7) #14
  ret ptr %34
}